ARM GAS  C:\msys64\tmp\ccBOBeYK.s 			page 1


   1              		.syntax unified
   2              		.cpu cortex-m4
   3              		.eabi_attribute 27, 1
   4              		.eabi_attribute 28, 1
   5              		.fpu fpv4-sp-d16
   6              		.eabi_attribute 20, 1
   7              		.eabi_attribute 21, 1
   8              		.eabi_attribute 23, 3
   9              		.eabi_attribute 24, 1
  10              		.eabi_attribute 25, 1
  11              		.eabi_attribute 26, 1
  12              		.eabi_attribute 30, 4
  13              		.eabi_attribute 34, 1
  14              		.eabi_attribute 18, 4
  15              		.thumb
  16              		.syntax unified
  17              		.file	"FMWF.cpp"
  18              		.text
  19              	.Ltext0:
  20              		.cfi_sections	.debug_frame
  21              		.align	1
  22              		.global	_hook_init
  23              		.thumb
  24              		.thumb_func
  25              		.type	_hook_init, %function
  26              	_hook_init:
  27              	.LFB239:
  28              		.file 1 "FMWF.cpp"
  29              		.loc 1 8 0
  30              		.cfi_startproc
  31              		@ args = 0, pretend = 0, frame = 0
  32              		@ frame_needed = 0, uses_anonymous_args = 0
  33              		@ link register save eliminated.
  34              	.LVL0:
  35              		.loc 1 9 0
  36 0000 074B     		ldr	r3, .L2
  37 0002 0021     		movs	r1, #0
  38              	.LVL1:
  39              		.loc 1 11 0
  40 0004 0022     		movs	r2, #0
  41              		.loc 1 9 0
  42 0006 5960     		str	r1, [r3, #4]	@ float
  43              		.loc 1 10 0
  44 0008 1960     		str	r1, [r3]	@ float
  45              		.loc 1 11 0
  46 000a 1A74     		strb	r2, [r3, #16]
  47              		.loc 1 12 0
  48 000c 5A74     		strb	r2, [r3, #17]
  49              		.loc 1 13 0
  50 000e 9A74     		strb	r2, [r3, #18]
  51              		.loc 1 14 0
  52 0010 D960     		str	r1, [r3, #12]	@ float
  53              		.loc 1 16 0
  54 0012 5961     		str	r1, [r3, #20]	@ float
  55              		.loc 1 17 0
  56 0014 D961     		str	r1, [r3, #28]	@ float
  57              		.loc 1 18 0
ARM GAS  C:\msys64\tmp\ccBOBeYK.s 			page 2


  58 0016 83F82520 		strb	r2, [r3, #37]
  59              		.loc 1 19 0
  60 001a 83F82620 		strb	r2, [r3, #38]
  61 001e 7047     		bx	lr
  62              	.L3:
  63              		.align	2
  64              	.L2:
  65 0020 00000000 		.word	.LANCHOR0
  66              		.cfi_endproc
  67              	.LFE239:
  68              		.size	_hook_init, .-_hook_init
  69              		.global	__aeabi_f2d
  70              		.global	__aeabi_dadd
  71              		.global	__aeabi_d2f
  72              		.global	__aeabi_dmul
  73              		.global	__aeabi_dsub
  74              		.align	1
  75              		.global	_Z8osc_mainf
  76              		.thumb
  77              		.thumb_func
  78              		.type	_Z8osc_mainf, %function
  79              	_Z8osc_mainf:
  80              	.LFB240:
  81              		.loc 1 25 0
  82              		.cfi_startproc
  83              		@ args = 0, pretend = 0, frame = 8
  84              		@ frame_needed = 0, uses_anonymous_args = 0
  85              	.LVL2:
  86 0024 30B5     		push	{r4, r5, lr}
  87              		.cfi_def_cfa_offset 12
  88              		.cfi_offset 4, -12
  89              		.cfi_offset 5, -8
  90              		.cfi_offset 14, -4
  91              		.loc 1 26 0
  92 0026 564B     		ldr	r3, .L16+16
  93 0028 D3ED037A 		vldr.32	s15, [r3, #12]
  94              		.loc 1 25 0
  95 002c 2DED048B 		vpush.64	{d8, d9}
  96              		.cfi_def_cfa_offset 28
  97              		.cfi_offset 80, -28
  98              		.cfi_offset 81, -24
  99              		.cfi_offset 82, -20
 100              		.cfi_offset 83, -16
 101              		.loc 1 26 0
 102 0030 F2EE048A 		vmov.f32	s17, #1.0e+1
 103 0034 67EEA88A 		vmul.f32	s17, s15, s17
 104              	.LVL3:
 105              		.loc 1 30 0
 106 0038 B6EE009A 		vmov.f32	s18, #5.0e-1
 107 003c F4EEC98A 		vcmpe.f32	s17, s18
 108 0040 F1EE10FA 		vmrs	APSR_nzcv, FPSCR
 109              		.loc 1 25 0
 110 0044 83B0     		sub	sp, sp, #12
 111              		.cfi_def_cfa_offset 40
 112 0046 1C46     		mov	r4, r3
 113              		.loc 1 30 0
 114 0048 15D5     		bpl	.L13
ARM GAS  C:\msys64\tmp\ccBOBeYK.s 			page 3


 115              		.loc 1 31 0
 116 004a 18EE900A 		vmov	r0, s17
 117 004e FFF7FEFF 		bl	__aeabi_f2d
 118              	.LVL4:
 119 0052 9FED471B 		vldr.64	d1, .L16
 120 0056 41EC100B 		vmov	d0, r0, r1
 121 005a FFF7FEFF 		bl	fmod
 122              	.LVL5:
 123 005e 53EC102B 		vmov	r2, r3, d0
 124 0062 10EE100A 		vmov	r0, s0	@ int
 125 0066 1946     		mov	r1, r3
 126 0068 FFF7FEFF 		bl	__aeabi_dadd
 127              	.LVL6:
 128 006c FFF7FEFF 		bl	__aeabi_d2f
 129              	.LVL7:
 130 0070 08EE100A 		vmov	s16, r0
 131              	.LVL8:
 132 0074 1AE0     		b	.L7
 133              	.LVL9:
 134              	.L13:
 135              		.loc 1 34 0
 136 0076 F1EE687A 		vneg.f32	s15, s17
 137 007a 17EE900A 		vmov	r0, s15
 138 007e FFF7FEFF 		bl	__aeabi_f2d
 139              	.LVL10:
 140 0082 9FED3B1B 		vldr.64	d1, .L16
 141 0086 41EC100B 		vmov	d0, r0, r1
 142 008a FFF7FEFF 		bl	fmod
 143              	.LVL11:
 144 008e 53EC102B 		vmov	r2, r3, d0
 145 0092 10EE100A 		vmov	r0, s0	@ int
 146 0096 1946     		mov	r1, r3
 147 0098 FFF7FEFF 		bl	__aeabi_dadd
 148              	.LVL12:
 149 009c 0022     		movs	r2, #0
 150 009e 394B     		ldr	r3, .L16+20
 151 00a0 FFF7FEFF 		bl	__aeabi_dadd
 152              	.LVL13:
 153 00a4 FFF7FEFF 		bl	__aeabi_d2f
 154              	.LVL14:
 155 00a8 08EE100A 		vmov	s16, r0
 156              	.LVL15:
 157              	.L7:
 158              		.loc 1 38 0
 159 00ac 2068     		ldr	r0, [r4]	@ float
 160              	.LVL16:
 161 00ae 07EE900A 		vmov	s15, r0
 162 00b2 F4EEE78A 		vcmpe.f32	s17, s15
 163 00b6 F1EE10FA 		vmrs	APSR_nzcv, FPSCR
 164 00ba F7EE008A 		vmov.f32	s17, #1.0e+0
 165              	.LVL17:
 166 00be 26DD     		ble	.L14
 167              		.loc 1 39 0
 168 00c0 FFF7FEFF 		bl	__aeabi_f2d
 169              	.LVL18:
 170 00c4 9FED2C1B 		vldr.64	d1, .L16+8
 171 00c8 41EC100B 		vmov	d0, r0, r1
ARM GAS  C:\msys64\tmp\ccBOBeYK.s 			page 4


 172 00cc FFF7FEFF 		bl	fmod
 173              	.LVL19:
 174 00d0 38EE288A 		vadd.f32	s16, s16, s17
 175              	.LVL20:
 176 00d4 53EC102B 		vmov	r2, r3, d0
 177 00d8 18EE100A 		vmov	r0, s16
 178 00dc CDE90023 		strd	r2, [sp]
 179 00e0 FFF7FEFF 		bl	__aeabi_f2d
 180              	.LVL21:
 181 00e4 DDE90023 		ldrd	r2, [sp]
 182 00e8 FFF7FEFF 		bl	__aeabi_dmul
 183              	.LVL22:
 184 00ec 68EE097A 		vmul.f32	s15, s16, s18
 185 00f0 0446     		mov	r4, r0
 186 00f2 17EE900A 		vmov	r0, s15
 187 00f6 0D46     		mov	r5, r1
 188 00f8 FFF7FEFF 		bl	__aeabi_f2d
 189              	.LVL23:
 190 00fc 0246     		mov	r2, r0
 191 00fe 0B46     		mov	r3, r1
 192 0100 2046     		mov	r0, r4
 193 0102 2946     		mov	r1, r5
 194 0104 FFF7FEFF 		bl	__aeabi_dsub
 195              	.LVL24:
 196 0108 FFF7FEFF 		bl	__aeabi_d2f
 197              	.LVL25:
 198 010c 27E0     		b	.L10
 199              	.LVL26:
 200              	.L14:
 201              		.loc 1 42 0
 202 010e 80F00040 		eor	r0, r0, #-2147483648
 203 0112 FFF7FEFF 		bl	__aeabi_f2d
 204              	.LVL27:
 205 0116 9FED181B 		vldr.64	d1, .L16+8
 206 011a 41EC100B 		vmov	d0, r0, r1
 207 011e FFF7FEFF 		bl	fmod
 208              	.LVL28:
 209 0122 38EE288A 		vadd.f32	s16, s16, s17
 210              	.LVL29:
 211 0126 53EC102B 		vmov	r2, r3, d0
 212 012a 18EE100A 		vmov	r0, s16
 213 012e CDE90023 		strd	r2, [sp]
 214 0132 FFF7FEFF 		bl	__aeabi_f2d
 215              	.LVL30:
 216 0136 DDE90023 		ldrd	r2, [sp]
 217 013a FFF7FEFF 		bl	__aeabi_dmul
 218              	.LVL31:
 219 013e 68EE097A 		vmul.f32	s15, s16, s18
 220 0142 0446     		mov	r4, r0
 221 0144 17EE900A 		vmov	r0, s15
 222 0148 0D46     		mov	r5, r1
 223 014a FFF7FEFF 		bl	__aeabi_f2d
 224              	.LVL32:
 225 014e 0246     		mov	r2, r0
 226 0150 0B46     		mov	r3, r1
 227 0152 2046     		mov	r0, r4
 228 0154 2946     		mov	r1, r5
ARM GAS  C:\msys64\tmp\ccBOBeYK.s 			page 5


 229 0156 FFF7FEFF 		bl	__aeabi_dadd
 230              	.LVL33:
 231 015a FFF7FEFF 		bl	__aeabi_d2f
 232              	.LVL34:
 233              	.L10:
 234              		.loc 1 45 0
 235 015e 00EE100A 		vmov	s0, r0
 236 0162 03B0     		add	sp, sp, #12
 237              		.cfi_def_cfa_offset 28
 238              		@ sp needed
 239 0164 BDEC048B 		vldm	sp!, {d8-d9}
 240              		.cfi_restore 82
 241              		.cfi_restore 83
 242              		.cfi_restore 80
 243              		.cfi_restore 81
 244              		.cfi_def_cfa_offset 12
 245 0168 30BD     		pop	{r4, r5, pc}
 246              	.L17:
 247 016a 00BFAFF3 		.align	3
 247      0080
 248              	.L16:
 249 0170 00000000 		.word	0
 250 0174 0000E03F 		.word	1071644672
 251 0178 00000000 		.word	0
 252 017c 0000F03F 		.word	1072693248
 253 0180 00000000 		.word	.LANCHOR0
 254 0184 0000F03F 		.word	1072693248
 255              		.cfi_endproc
 256              	.LFE240:
 257              		.size	_Z8osc_mainf, .-_Z8osc_mainf
 258              		.align	1
 259              		.global	_hook_cycle
 260              		.thumb
 261              		.thumb_func
 262              		.type	_hook_cycle, %function
 263              	_hook_cycle:
 264              	.LFB241:
 265              		.loc 1 47 0
 266              		.cfi_startproc
 267              		@ args = 0, pretend = 0, frame = 8
 268              		@ frame_needed = 0, uses_anonymous_args = 0
 269              	.LVL35:
 270 0188 F0B5     		push	{r4, r5, r6, r7, lr}
 271              		.cfi_def_cfa_offset 20
 272              		.cfi_offset 4, -20
 273              		.cfi_offset 5, -16
 274              		.cfi_offset 6, -12
 275              		.cfi_offset 7, -8
 276              		.cfi_offset 14, -4
 277              		.loc 1 53 0
 278 018a 8F4C     		ldr	r4, .L50
 279 018c 8388     		ldrh	r3, [r0, #4]
 280              	.LBB66:
 281              	.LBB67:
 282              		.file 2 "../../inc/utils/float_math.h"
 283              		.loc 2 826 0
 284 018e DFED8F5A 		vldr.32	s11, .L50+4
ARM GAS  C:\msys64\tmp\ccBOBeYK.s 			page 6


 285              	.LBE67:
 286              	.LBE66:
 287              		.loc 1 47 0
 288 0192 0D46     		mov	r5, r1
 289              		.loc 1 53 0
 290 0194 617C     		ldrb	r1, [r4, #17]	@ zero_extendqisi2
 291              	.LVL36:
 292 0196 01EB1326 		add	r6, r1, r3, lsr #8
 293 019a 217C     		ldrb	r1, [r4, #16]	@ zero_extendqisi2
 294 019c 3144     		add	r1, r1, r6
 295 019e 07EE901A 		vmov	s15, r1	@ int
 296              		.loc 1 47 0
 297 01a2 2DED0A8B 		vpush.64	{d8, d9, d10, d11, d12}
 298              		.cfi_def_cfa_offset 60
 299              		.cfi_offset 80, -60
 300              		.cfi_offset 81, -56
 301              		.cfi_offset 82, -52
 302              		.cfi_offset 83, -48
 303              		.cfi_offset 84, -44
 304              		.cfi_offset 85, -40
 305              		.cfi_offset 86, -36
 306              		.cfi_offset 87, -32
 307              		.cfi_offset 88, -28
 308              		.cfi_offset 89, -24
 309              		.loc 1 53 0
 310 01a6 B8EEE77A 		vcvt.f32.s32	s14, s15
 311              	.LVL37:
 312              		.loc 1 54 0
 313 01aa A17C     		ldrb	r1, [r4, #18]	@ zero_extendqisi2
 314              	.LBB71:
 315              	.LBB72:
 316              		.file 3 "../../inc/osc_api.h"
 317              		.loc 3 115 0
 318 01ac 884E     		ldr	r6, .L50+8
 319              	.LBE72:
 320              	.LBE71:
 321              	.LBB75:
 322              	.LBB76:
 323              		.loc 3 130 0
 324 01ae DFED89AA 		vldr.32	s21, .L50+12
 325              	.LBE76:
 326              	.LBE75:
 327              		.loc 1 65 0
 328 01b2 90ED00BA 		vldr.32	s22, [r0]	@ int
 329              	.LBB102:
 330              	.LBB103:
 331              	.LBB104:
 332              	.LBB105:
 333              		.loc 3 160 0
 334 01b6 9FED88CA 		vldr.32	s24, .L50+16
 335              	.LBE105:
 336              	.LBE104:
 337              		.loc 1 93 0
 338 01ba DFED88BA 		vldr.32	s23, .L50+20
 339              	.LBE103:
 340              	.LBE102:
 341              		.loc 1 57 0
ARM GAS  C:\msys64\tmp\ccBOBeYK.s 			page 7


 342 01be FCEEC76A 		vcvt.u32.f32	s13, s14
 343              		.loc 1 47 0
 344 01c2 83B0     		sub	sp, sp, #12
 345              		.cfi_def_cfa_offset 72
 346              		.loc 1 54 0
 347 01c4 0B44     		add	r3, r3, r1
 348              		.loc 1 57 0
 349 01c6 CDED016A 		vstr.32	s13, [sp, #4]	@ int
 350              		.loc 1 54 0
 351 01ca DBB2     		uxtb	r3, r3
 352              		.loc 1 58 0
 353 01cc B7EE00AA 		vmov.f32	s20, #1.0e+0
 354              		.loc 1 54 0
 355 01d0 07EE903A 		vmov	s15, r3	@ int
 356              		.loc 1 58 0
 357 01d4 77EE0A6A 		vadd.f32	s13, s14, s20
 358              		.loc 1 57 0
 359 01d8 9DF80430 		ldrb	r3, [sp, #4]	@ zero_extendqisi2
 360              		.loc 1 58 0
 361 01dc FCEEE66A 		vcvt.u32.f32	s13, s13
 362              	.LBB124:
 363              	.LBB73:
 364              		.loc 3 115 0
 365 01e0 962B     		cmp	r3, #150
 366 01e2 94BF     		ite	ls
 367 01e4 1946     		movls	r1, r3
 368 01e6 9721     		movhi	r1, #151
 369              	.LBE73:
 370              	.LBE124:
 371              		.loc 1 58 0
 372 01e8 CDED016A 		vstr.32	s13, [sp, #4]	@ int
 373              	.LBB125:
 374              	.LBB74:
 375              		.loc 3 115 0
 376 01ec 06EB8101 		add	r1, r6, r1, lsl #2
 377 01f0 D1ED009A 		vldr.32	s19, [r1]
 378              	.LBE74:
 379              	.LBE125:
 380              		.loc 1 58 0
 381 01f4 9DF80410 		ldrb	r1, [sp, #4]	@ zero_extendqisi2
 382              		.loc 1 62 0
 383 01f8 94F82530 		ldrb	r3, [r4, #37]	@ zero_extendqisi2
 384              	.LBB126:
 385              	.LBB127:
 386              		.loc 3 115 0
 387 01fc 9629     		cmp	r1, #150
 388 01fe 88BF     		it	hi
 389 0200 9721     		movhi	r1, #151
 390 0202 06EB8101 		add	r1, r6, r1, lsl #2
 391              	.LBE127:
 392              	.LBE126:
 393              		.loc 1 54 0
 394 0206 F8EEE77A 		vcvt.f32.s32	s15, s15
 395              	.LVL38:
 396              	.LBB128:
 397              	.LBB68:
 398              		.loc 2 826 0
ARM GAS  C:\msys64\tmp\ccBOBeYK.s 			page 8


 399 020a D1ED006A 		vldr.32	s13, [r1]
 400              	.LBE68:
 401              	.LBE128:
 402              		.loc 1 62 0
 403 020e 94F82610 		ldrb	r1, [r4, #38]	@ zero_extendqisi2
 404              	.LBB129:
 405              	.LBB69:
 406              		.loc 2 826 0
 407 0212 27EEA56A 		vmul.f32	s12, s15, s11
 408              	.LVL39:
 409 0216 76EEE96A 		vsub.f32	s13, s13, s19
 410              	.LBE69:
 411              	.LBE129:
 412              		.loc 1 65 0
 413 021a BAEEE0BA 		vcvt.f32.s32	s22, s22, #31
 414              	.LBB130:
 415              	.LBB70:
 416              		.loc 2 826 0
 417 021e E6EE269A 		vfma.f32	s19, s12, s13
 418              	.LVL40:
 419              	.LBE70:
 420              	.LBE130:
 421              		.loc 1 69 0
 422 0222 05EB8207 		add	r7, r5, r2, lsl #2
 423              	.LBB131:
 424              	.LBB132:
 425              	.LBB133:
 426              	.LBB134:
 427              	.LBB135:
 428              		.loc 2 193 0
 429 0226 DFED6E6A 		vldr.32	s13, .L50+24
 430 022a 39EEE66A 		vsub.f32	s12, s19, s13
 431              	.LVL41:
 432 022e B5EEC06A 		vcmpe.f32	s12, #0
 433              	.LBE135:
 434              	.LBE134:
 435              	.LBE133:
 436              	.LBE132:
 437              	.LBE131:
 438              		.loc 1 62 0
 439 0232 06EE103A 		vmov	s12, r3	@ int
 440              	.LVL42:
 441 0236 B8EEC66A 		vcvt.f32.s32	s12, s12
 442              	.LBB144:
 443              	.LBB142:
 444              	.LBB140:
 445              	.LBB138:
 446              	.LBB136:
 447              		.loc 2 193 0
 448 023a F1EE10FA 		vmrs	APSR_nzcv, FPSCR
 449              	.LBE136:
 450              	.LBE138:
 451              	.LBE140:
 452              	.LBE142:
 453              	.LBE144:
 454              		.loc 1 62 0
 455 023e 36EE077A 		vadd.f32	s14, s12, s14
ARM GAS  C:\msys64\tmp\ccBOBeYK.s 			page 9


 456              	.LVL43:
 457              	.LBB145:
 458              	.LBB143:
 459              	.LBB141:
 460              	.LBB139:
 461              	.LBB137:
 462              		.loc 2 193 0
 463 0242 A8BF     		it	ge
 464 0244 F0EE669A 		vmovge.f32	s19, s13
 465              	.LVL44:
 466              	.LBE137:
 467              	.LBE139:
 468              	.LBE141:
 469              	.LBE143:
 470              	.LBE145:
 471              		.loc 1 62 0
 472 0248 BCEEC77A 		vcvt.u32.f32	s14, s14
 473 024c 8DED017A 		vstr.32	s14, [sp, #4]	@ int
 474 0250 07EE101A 		vmov	s14, r1	@ int
 475 0254 B8EEC77A 		vcvt.f32.s32	s14, s14
 476 0258 9DF80430 		ldrb	r3, [sp, #4]	@ zero_extendqisi2
 477 025c 77EE277A 		vadd.f32	s15, s14, s15
 478              	.LVL45:
 479              	.LBB146:
 480              	.LBB99:
 481              	.LBB77:
 482              	.LBB78:
 483              		.loc 3 115 0
 484 0260 962B     		cmp	r3, #150
 485              	.LBE78:
 486              	.LBE77:
 487              	.LBE99:
 488              	.LBE146:
 489              		.loc 1 62 0
 490 0262 FCEEE77A 		vcvt.u32.f32	s15, s15
 491 0266 CDED017A 		vstr.32	s15, [sp, #4]	@ int
 492 026a 9DF80410 		ldrb	r1, [sp, #4]	@ zero_extendqisi2
 493 026e 07EE901A 		vmov	s15, r1	@ int
 494              	.LVL46:
 495              	.LBB147:
 496              	.LBB100:
 497              	.LBB83:
 498              	.LBB79:
 499              		.loc 3 115 0
 500 0272 98BF     		it	ls
 501 0274 1946     		movls	r1, r3
 502              	.LBE79:
 503              	.LBE83:
 504              		.loc 3 126 0
 505 0276 03F10103 		add	r3, r3, #1
 506              	.LVL47:
 507 027a DBB2     		uxtb	r3, r3
 508              	.LVL48:
 509              	.LBB84:
 510              	.LBB80:
 511              		.loc 3 115 0
 512 027c 88BF     		it	hi
ARM GAS  C:\msys64\tmp\ccBOBeYK.s 			page 10


 513 027e 9721     		movhi	r1, #151
 514              	.LVL49:
 515              	.LBE80:
 516              	.LBE84:
 517              	.LBB85:
 518              	.LBB86:
 519 0280 962B     		cmp	r3, #150
 520 0282 88BF     		it	hi
 521 0284 9723     		movhi	r3, #151
 522              	.LBE86:
 523              	.LBE85:
 524              	.LBB88:
 525              	.LBB81:
 526 0286 06EB8101 		add	r1, r6, r1, lsl #2
 527              	.LBE81:
 528              	.LBE88:
 529              	.LBB89:
 530              	.LBB87:
 531 028a 06EB8303 		add	r3, r6, r3, lsl #2
 532              	.LBE87:
 533              	.LBE89:
 534              	.LBB90:
 535              	.LBB82:
 536 028e 91ED009A 		vldr.32	s18, [r1]
 537              	.LVL50:
 538              	.LBE82:
 539              	.LBE90:
 540              	.LBB91:
 541              	.LBB92:
 542              		.loc 2 826 0
 543 0292 93ED007A 		vldr.32	s14, [r3]
 544              	.LBE92:
 545              	.LBE91:
 546              	.LBE100:
 547              	.LBE147:
 548              	.LBB148:
 549              	.LBB122:
 550              	.LBB117:
 551              	.LBB112:
 552              		.loc 3 166 0
 553 0296 534E     		ldr	r6, .L50+28
 554              	.LBE112:
 555              	.LBE117:
 556              	.LBE122:
 557              	.LBE148:
 558              	.LBB149:
 559              	.LBB101:
 560              	.LBB94:
 561              	.LBB93:
 562              		.loc 2 826 0
 563 0298 F8EEE77A 		vcvt.f32.s32	s15, s15
 564              	.LVL51:
 565 029c 37EE497A 		vsub.f32	s14, s14, s18
 566 02a0 67EEA57A 		vmul.f32	s15, s15, s11
 567 02a4 A7EE879A 		vfma.f32	s18, s15, s14
 568              	.LVL52:
 569              	.LBE93:
ARM GAS  C:\msys64\tmp\ccBOBeYK.s 			page 11


 570              	.LBE94:
 571              	.LBB95:
 572              	.LBB96:
 573              	.LBB97:
 574              	.LBB98:
 575              		.loc 2 193 0
 576 02a8 B4EEE69A 		vcmpe.f32	s18, s13
 577 02ac F1EE10FA 		vmrs	APSR_nzcv, FPSCR
 578 02b0 B8BF     		it	lt
 579 02b2 F0EE496A 		vmovlt.f32	s13, s18
 580              	.LVL53:
 581              	.LBE98:
 582              	.LBE97:
 583              	.LBE96:
 584              	.LBE95:
 585              		.loc 3 130 0
 586 02b6 26EEAA9A 		vmul.f32	s18, s13, s21
 587              	.LVL54:
 588              	.L35:
 589              	.LBE101:
 590              	.LBE149:
 591              	.LBB150:
 592              		.loc 1 71 0
 593 02ba BD42     		cmp	r5, r7
 594 02bc 7FD0     		beq	.L18
 595              	.LBB123:
 596              		.loc 1 74 0
 597 02be 94ED057A 		vldr.32	s14, [r4, #20]
 598              	.LVL55:
 599              		.loc 1 79 0
 600 02c2 D4ED008A 		vldr.32	s17, [r4]
 601              	.LBB118:
 602              	.LBB113:
 603              		.loc 3 160 0
 604 02c6 FCEEC77A 		vcvt.u32.f32	s15, s14
 605              	.LBE113:
 606              	.LBE118:
 607              		.loc 1 79 0
 608 02ca B0EE680A 		vmov.f32	s0, s17
 609              	.LBB119:
 610              	.LBB114:
 611              		.loc 3 160 0
 612 02ce F8EE677A 		vcvt.f32.u32	s15, s15
 613 02d2 77EE677A 		vsub.f32	s15, s14, s15
 614              	.LBE114:
 615              	.LBE119:
 616              		.loc 1 75 0
 617 02d6 37EE097A 		vadd.f32	s14, s14, s18
 618              	.LVL56:
 619              	.LBB120:
 620              	.LBB115:
 621              		.loc 3 160 0
 622 02da 67EE8C7A 		vmul.f32	s15, s15, s24
 623              	.LVL57:
 624              		.loc 3 161 0
 625 02de FCEEE76A 		vcvt.u32.f32	s13, s15
 626 02e2 16EE901A 		vmov	r1, s13	@ int
ARM GAS  C:\msys64\tmp\ccBOBeYK.s 			page 12


 627              	.LVL58:
 628              		.loc 3 163 0
 629 02e6 01F07F03 		and	r3, r1, #127
 630              	.LVL59:
 631              		.loc 3 166 0
 632 02ea 06EB8302 		add	r2, r6, r3, lsl #2
 633 02ee 0133     		adds	r3, r3, #1
 634              	.LVL60:
 635              	.LBB106:
 636              	.LBB107:
 637              		.loc 2 826 0
 638 02f0 F8EE666A 		vcvt.f32.u32	s13, s13
 639              	.LBE107:
 640              	.LBE106:
 641              		.loc 3 166 0
 642 02f4 03F07F03 		and	r3, r3, #127
 643              	.LVL61:
 644 02f8 06EB8303 		add	r3, r6, r3, lsl #2
 645              	.LVL62:
 646 02fc 92ED008A 		vldr.32	s16, [r2]
 647              	.LVL63:
 648              	.LBB110:
 649              	.LBB108:
 650              		.loc 2 826 0
 651 0300 77EEE67A 		vsub.f32	s15, s15, s13
 652              	.LVL64:
 653 0304 D3ED006A 		vldr.32	s13, [r3]
 654 0308 76EEC86A 		vsub.f32	s13, s13, s16
 655              	.LBE108:
 656              	.LBE110:
 657              		.loc 3 167 0
 658 030c 7F29     		cmp	r1, #127
 659              	.LBB111:
 660              	.LBB109:
 661              		.loc 2 826 0
 662 030e A7EEA68A 		vfma.f32	s16, s15, s13
 663              	.LVL65:
 664              	.LBE109:
 665              	.LBE111:
 666              	.LBE115:
 667              	.LBE120:
 668              		.loc 1 76 0
 669 0312 FCEEC77A 		vcvt.u32.f32	s15, s14
 670              	.LBB121:
 671              	.LBB116:
 672              		.loc 3 167 0
 673 0316 88BF     		it	hi
 674 0318 B1EE488A 		vneghi.f32	s16, s16
 675              	.LVL66:
 676              	.LBE116:
 677              	.LBE121:
 678              		.loc 1 76 0
 679 031c F8EE677A 		vcvt.f32.u32	s15, s15
 680 0320 37EE677A 		vsub.f32	s14, s14, s15
 681 0324 84ED057A 		vstr.32	s14, [r4, #20]
 682              		.loc 1 79 0
 683 0328 FFF7FEFF 		bl	_Z8osc_mainf
ARM GAS  C:\msys64\tmp\ccBOBeYK.s 			page 13


 684              	.LVL67:
 685 032c D4ED017A 		vldr.32	s15, [r4, #4]
 686 0330 B6EE007A 		vmov.f32	s14, #5.0e-1
 687 0334 77EE8A7A 		vadd.f32	s15, s15, s20
 688 0338 20EE070A 		vmul.f32	s0, s0, s14
 689              		.loc 1 82 0
 690 033c FEEE006A 		vmov.f32	s13, #-5.0e-1
 691              		.loc 1 79 0
 692 0340 67EE807A 		vmul.f32	s15, s15, s0
 693              	.LVL68:
 694              		.loc 1 82 0
 695 0344 F4EEE67A 		vcmpe.f32	s15, s13
 696 0348 F1EE10FA 		vmrs	APSR_nzcv, FPSCR
 697 034c 04D5     		bpl	.L47
 698              		.loc 1 82 0 is_stmt 0 discriminator 1
 699 034e BFEE000A 		vmov.f32	s0, #-1.0e+0
 700 0352 70EE677A 		vsub.f32	s15, s0, s15
 701              	.LVL69:
 702 0356 08E0     		b	.L29
 703              	.LVL70:
 704              	.L47:
 705              		.loc 1 82 0 discriminator 2
 706 0358 F4EEC77A 		vcmpe.f32	s15, s14
 707 035c F1EE10FA 		vmrs	APSR_nzcv, FPSCR
 708 0360 C4BF     		itt	gt
 709 0362 B7EE000A 		vmovgt.f32	s0, #1.0e+0
 710 0366 70EE677A 		vsubgt.f32	s15, s0, s15
 711              	.LVL71:
 712              	.L29:
 713              		.loc 1 83 0 is_stmt 1 discriminator 8
 714 036a F4EEE67A 		vcmpe.f32	s15, s13
 715 036e F1EE10FA 		vmrs	APSR_nzcv, FPSCR
 716 0372 04D5     		bpl	.L49
 717              		.loc 1 83 0 is_stmt 0 discriminator 1
 718 0374 BFEE007A 		vmov.f32	s14, #-1.0e+0
 719 0378 77EE677A 		vsub.f32	s15, s14, s15
 720              	.LVL72:
 721 037c 06E0     		b	.L33
 722              	.LVL73:
 723              	.L49:
 724              		.loc 1 83 0 discriminator 2
 725 037e F4EEC77A 		vcmpe.f32	s15, s14
 726 0382 F1EE10FA 		vmrs	APSR_nzcv, FPSCR
 727 0386 C8BF     		it	gt
 728 0388 7AEE677A 		vsubgt.f32	s15, s20, s15
 729              	.LVL74:
 730              	.L33:
 731              		.loc 1 89 0 is_stmt 1 discriminator 8
 732 038c 94ED077A 		vldr.32	s14, [r4, #28]
 733 0390 3BEE088A 		vadd.f32	s16, s22, s16
 734              	.LVL75:
 735 0394 F0EE696A 		vmov.f32	s13, s19
 736 0398 E8EE076A 		vfma.f32	s13, s16, s14
 737              		.loc 1 93 0 discriminator 8
 738 039c 67EEAB7A 		vmul.f32	s15, s15, s23
 739              	.LVL76:
 740              		.loc 1 89 0 discriminator 8
ARM GAS  C:\msys64\tmp\ccBOBeYK.s 			page 14


 741 03a0 E6EEAA8A 		vfma.f32	s17, s13, s21
 742              		.loc 1 93 0 discriminator 8
 743 03a4 FDEEE77A 		vcvt.s32.f32	s15, s15
 744              		.loc 1 90 0 discriminator 8
 745 03a8 BCEEE87A 		vcvt.u32.f32	s14, s17
 746              		.loc 1 93 0 discriminator 8
 747 03ac E5EC017A 		vstmia.32	r5!, {s15}	@ int
 748              	.LVL77:
 749              		.loc 1 90 0 discriminator 8
 750 03b0 B8EE477A 		vcvt.f32.u32	s14, s14
 751 03b4 78EEC78A 		vsub.f32	s17, s17, s14
 752 03b8 C4ED008A 		vstr.32	s17, [r4]
 753              	.LVL78:
 754              	.LBE123:
 755              		.loc 1 71 0 discriminator 8
 756 03bc 7DE7     		b	.L35
 757              	.LVL79:
 758              	.L18:
 759              	.LBE150:
 760              		.loc 1 95 0
 761 03be 03B0     		add	sp, sp, #12
 762              		.cfi_def_cfa_offset 60
 763              		@ sp needed
 764 03c0 BDEC0A8B 		vldm	sp!, {d8-d12}
 765              		.cfi_restore 88
 766              		.cfi_restore 89
 767              		.cfi_restore 86
 768              		.cfi_restore 87
 769              		.cfi_restore 84
 770              		.cfi_restore 85
 771              		.cfi_restore 82
 772              		.cfi_restore 83
 773              		.cfi_restore 80
 774              		.cfi_restore 81
 775              		.cfi_def_cfa_offset 20
 776              	.LVL80:
 777 03c4 F0BD     		pop	{r4, r5, r6, r7, pc}
 778              	.LVL81:
 779              	.L51:
 780 03c6 00BF     		.align	2
 781              	.L50:
 782 03c8 00000000 		.word	.LANCHOR0
 783 03cc 8180803B 		.word	998277249
 784 03d0 00000000 		.word	midi_to_hz_lut_f
 785 03d4 3EC3AE37 		.word	934200126
 786 03d8 00008043 		.word	1132462080
 787 03dc 0000004F 		.word	1325400064
 788 03e0 49FFB846 		.word	1186529097
 789 03e4 00000000 		.word	wt_sine_lut_f
 790              		.cfi_endproc
 791              	.LFE241:
 792              		.size	_hook_cycle, .-_hook_cycle
 793              		.align	1
 794              		.global	_hook_on
 795              		.thumb
 796              		.thumb_func
 797              		.type	_hook_on, %function
ARM GAS  C:\msys64\tmp\ccBOBeYK.s 			page 15


 798              	_hook_on:
 799              	.LFB246:
 800              		.cfi_startproc
 801              		@ args = 0, pretend = 0, frame = 0
 802              		@ frame_needed = 0, uses_anonymous_args = 0
 803              		@ link register save eliminated.
 804 03e8 7047     		bx	lr
 805              		.cfi_endproc
 806              	.LFE246:
 807              		.size	_hook_on, .-_hook_on
 808              		.align	1
 809              		.global	_hook_off
 810              		.thumb
 811              		.thumb_func
 812              		.type	_hook_off, %function
 813              	_hook_off:
 814              	.LFB243:
 815              		.loc 1 100 0
 816              		.cfi_startproc
 817              		@ args = 0, pretend = 0, frame = 0
 818              		@ frame_needed = 0, uses_anonymous_args = 0
 819              		@ link register save eliminated.
 820              	.LVL82:
 821 03ea 7047     		bx	lr
 822              		.cfi_endproc
 823              	.LFE243:
 824              		.size	_hook_off, .-_hook_off
 825              		.align	1
 826              		.global	_hook_param
 827              		.thumb
 828              		.thumb_func
 829              		.type	_hook_param, %function
 830              	_hook_param:
 831              	.LFB244:
 832              		.loc 1 104 0
 833              		.cfi_startproc
 834              		@ args = 0, pretend = 0, frame = 0
 835              		@ frame_needed = 0, uses_anonymous_args = 0
 836              		@ link register save eliminated.
 837              	.LVL83:
 838              		.loc 1 105 0
 839 03ec 07EE901A 		vmov	s15, r1	@ int
 840 03f0 9FED1A7A 		vldr.32	s14, .L65
 841 03f4 F8EEE77A 		vcvt.f32.s32	s15, s15
 842 03f8 67EE877A 		vmul.f32	s15, s15, s14
 843              	.LVL84:
 844              		.loc 1 107 0
 845 03fc 0728     		cmp	r0, #7
 846 03fe 2CD8     		bhi	.L54
 847 0400 DFE800F0 		tbb	[pc, r0]
 848              	.L57:
 849 0404 04       		.byte	(.L56-.L57)/2
 850 0405 0A       		.byte	(.L58-.L57)/2
 851 0406 0D       		.byte	(.L59-.L57)/2
 852 0407 10       		.byte	(.L60-.L57)/2
 853 0408 14       		.byte	(.L61-.L57)/2
 854 0409 18       		.byte	(.L62-.L57)/2
ARM GAS  C:\msys64\tmp\ccBOBeYK.s 			page 16


 855 040a 1C       		.byte	(.L63-.L57)/2
 856 040b 24       		.byte	(.L64-.L57)/2
 857              		.p2align 1
 858              	.L56:
 859              		.loc 1 109 0
 860 040c 01EB4101 		add	r1, r1, r1, lsl #1
 861              	.LVL85:
 862 0410 134B     		ldr	r3, .L65+4
 863 0412 8900     		lsls	r1, r1, #2
 864 0414 1974     		strb	r1, [r3, #16]
 865              		.loc 1 110 0
 866 0416 7047     		bx	lr
 867              	.LVL86:
 868              	.L58:
 869              		.loc 1 112 0
 870 0418 114B     		ldr	r3, .L65+4
 871 041a 5974     		strb	r1, [r3, #17]
 872              		.loc 1 113 0
 873 041c 7047     		bx	lr
 874              	.L59:
 875              		.loc 1 115 0
 876 041e 104B     		ldr	r3, .L65+4
 877 0420 9974     		strb	r1, [r3, #18]
 878              		.loc 1 116 0
 879 0422 7047     		bx	lr
 880              	.L60:
 881              		.loc 1 118 0
 882 0424 0E4B     		ldr	r3, .L65+4
 883 0426 C3ED037A 		vstr.32	s15, [r3, #12]
 884              		.loc 1 119 0
 885 042a 7047     		bx	lr
 886              	.L61:
 887              		.loc 1 121 0
 888 042c 0C4B     		ldr	r3, .L65+4
 889 042e 83F82510 		strb	r1, [r3, #37]
 890              		.loc 1 122 0
 891 0432 7047     		bx	lr
 892              	.L62:
 893              		.loc 1 124 0
 894 0434 0A4B     		ldr	r3, .L65+4
 895 0436 83F82610 		strb	r1, [r3, #38]
 896              		.loc 1 125 0
 897 043a 7047     		bx	lr
 898              	.L63:
 899              		.loc 1 127 0
 900 043c 07EE901A 		vmov	s15, r1	@ int
 901              	.LVL87:
 902 0440 074B     		ldr	r3, .L65+4
 903 0442 F8EE677A 		vcvt.f32.u32	s15, s15
 904 0446 C3ED077A 		vstr.32	s15, [r3, #28]
 905              		.loc 1 128 0
 906 044a 7047     		bx	lr
 907              	.LVL88:
 908              	.L64:
 909              		.loc 1 130 0
 910 044c B1EE047A 		vmov.f32	s14, #5.0e+0
 911 0450 67EE877A 		vmul.f32	s15, s15, s14
ARM GAS  C:\msys64\tmp\ccBOBeYK.s 			page 17


 912              	.LVL89:
 913 0454 024B     		ldr	r3, .L65+4
 914 0456 C3ED017A 		vstr.32	s15, [r3, #4]
 915              	.L54:
 916 045a 7047     		bx	lr
 917              	.L66:
 918              		.align	2
 919              	.L65:
 920 045c 0820803A 		.word	981475336
 921 0460 00000000 		.word	.LANCHOR0
 922              		.cfi_endproc
 923              	.LFE244:
 924              		.size	_hook_param, .-_hook_param
 925              		.bss
 926              		.align	2
 927              		.set	.LANCHOR0,. + 0
 928              		.type	_ZL17carrierOscillator, %object
 929              		.size	_ZL17carrierOscillator, 20
 930              	_ZL17carrierOscillator:
 931 0000 00000000 		.space	20
 931      00000000 
 931      00000000 
 931      00000000 
 931      00000000 
 932              		.type	_ZL19modulatorOscillator, %object
 933              		.size	_ZL19modulatorOscillator, 20
 934              	_ZL19modulatorOscillator:
 935 0014 00000000 		.space	20
 935      00000000 
 935      00000000 
 935      00000000 
 935      00000000 
 936              		.text
 937              	.Letext0:
 938              		.file 4 "c:\\msys64\\home\\logue-sdk\\tools\\gcc\\gcc-arm-none-eabi-5_4-2016q3\\arm-none-eabi\\inc
 939              		.file 5 "c:\\msys64\\home\\logue-sdk\\tools\\gcc\\gcc-arm-none-eabi-5_4-2016q3\\arm-none-eabi\\inc
 940              		.file 6 "../../../ext/CMSIS/CMSIS/Include/arm_math.h"
 941              		.file 7 "../../inc/userosc.h"
 942              		.file 8 "FMWF.hpp"
 943              		.file 9 "../../inc/utils/int_math.h"
 944              		.file 10 "../../inc/userprg.h"
 945              		.file 11 "c:\\msys64\\home\\logue-sdk\\tools\\gcc\\gcc-arm-none-eabi-5_4-2016q3\\arm-none-eabi\\in